target datalayout = "e-m:e-p270:32:32-p271:32:32-p272:64:64-i64:64-i128:128-f80:128-n8:16:32:64-S128"
target triple = "x86_64-pc-linux-gnu"

%struct.packet_netlink_data = type { i32, i32, i16 }

@hf_net_dm_port_netdev_index = internal global i32 0, align 4
@hf_net_dm_port_netdev_name = internal global i32 0, align 4
@.str.88 = private unnamed_addr constant [5 x i8] c": %s\00", align 1
@.str.89 = private unnamed_addr constant [5 x i8] c": %u\00", align 1

; Function Attrs: null_pointer_is_valid sspstrong uwtable
define internal i32 @dissect_net_dm_attrs_port(ptr noundef %0, ptr noundef %1, ptr noundef %2, ptr noundef %3, i32 noundef %4, i32 noundef %5, i32 noundef %6) #0 {
  %8 = alloca i32, align 4
  %9 = alloca ptr, align 8
  %10 = alloca ptr, align 8
  %11 = alloca ptr, align 8
  %12 = alloca ptr, align 8
  %13 = alloca i32, align 4
  %14 = alloca i32, align 4
  %15 = alloca i32, align 4
  %16 = alloca i32, align 4
  %17 = alloca ptr, align 8
  %18 = alloca i32, align 4
  %19 = alloca i32, align 4
  store ptr %0, ptr %9, align 8
  store ptr %1, ptr %10, align 8
  store ptr %2, ptr %11, align 8
  store ptr %3, ptr %12, align 8
  store i32 %4, ptr %13, align 4
  store i32 %5, ptr %14, align 4
  store i32 %6, ptr %15, align 4
  call void @llvm.lifetime.start.p0(i64 4, ptr %16) #4
  %20 = load i32, ptr %13, align 4
  %21 = and i32 %20, 16383
  store i32 %21, ptr %16, align 4
  call void @llvm.lifetime.start.p0(i64 8, ptr %17) #4
  call void @llvm.lifetime.start.p0(i64 4, ptr %18) #4
  %22 = load i32, ptr %16, align 4
  switch i32 %22, label %45 [
    i32 0, label %23
    i32 1, label %35
  ]

23:                                               ; preds = %7
  %24 = load ptr, ptr %12, align 8
  %25 = load i32, ptr @hf_net_dm_port_netdev_index, align 4
  %26 = load ptr, ptr %9, align 8
  %27 = load i32, ptr %14, align 4
  %28 = load i32, ptr %15, align 4
  %29 = load ptr, ptr %11, align 8
  %30 = getelementptr inbounds nuw %struct.packet_netlink_data, ptr %29, i32 0, i32 1
  %31 = load i32, ptr %30, align 4
  %32 = call ptr @proto_tree_add_item_ret_uint(ptr noundef %24, i32 noundef %25, ptr noundef %26, i32 noundef %27, i32 noundef %28, i32 noundef %31, ptr noundef %18)
  %33 = load ptr, ptr %12, align 8
  %34 = load i32, ptr %18, align 4
  call void (ptr, ptr, ...) @proto_item_append_text(ptr noundef %33, ptr noundef @.str.89, i32 noundef %34)
  store i32 1, ptr %8, align 4
  store i32 1, ptr %19, align 4
  br label %46

35:                                               ; preds = %7
  %36 = load ptr, ptr %12, align 8
  %37 = load i32, ptr @hf_net_dm_port_netdev_name, align 4
  %38 = load ptr, ptr %9, align 8
  %39 = load i32, ptr %14, align 4
  %40 = load i32, ptr %15, align 4
  %41 = call ptr @wmem_packet_scope()
  %42 = call ptr @proto_tree_add_item_ret_string(ptr noundef %36, i32 noundef %37, ptr noundef %38, i32 noundef %39, i32 noundef %40, i32 noundef 0, ptr noundef %41, ptr noundef %17)
  %43 = load ptr, ptr %12, align 8
  %44 = load ptr, ptr %17, align 8
  call void (ptr, ptr, ...) @proto_item_append_text(ptr noundef %43, ptr noundef @.str.88, ptr noundef %44)
  store i32 1, ptr %8, align 4
  store i32 1, ptr %19, align 4
  br label %46

45:                                               ; preds = %7
  store i32 0, ptr %8, align 4
  store i32 1, ptr %19, align 4
  br label %46

46:                                               ; preds = %45, %35, %23
  call void @llvm.lifetime.end.p0(i64 4, ptr %18) #4
  call void @llvm.lifetime.end.p0(i64 8, ptr %17) #4
  call void @llvm.lifetime.end.p0(i64 4, ptr %16) #4
  %47 = load i32, ptr %8, align 4
  ret i32 %47
}