; Function Attrs: null_pointer_is_valid sspstrong uwtable
define internal range(i32 0, 2) i32 @dissect_net_dm_attrs_port(ptr noundef %0, ptr readnone captures(none) %1, ptr noundef readonly captures(none) %2, ptr noundef %3, i32 noundef %4, i32 noundef %5, i32 noundef %6) #0 {
  %8 = alloca ptr, align 8
  %9 = alloca i32, align 4
  %10 = and i32 %4, 16383
  call void @llvm.lifetime.start.p0(i64 8, ptr nonnull %8) #4
  call void @llvm.lifetime.start.p0(i64 4, ptr nonnull %9) #4
  switch i32 %10, label %22 [
    i32 0, label %11
    i32 1, label %17
  ]

11:                                               ; preds = %7
  %12 = load i32, ptr @hf_net_dm_port_netdev_index, align 4
  %13 = getelementptr inbounds nuw i8, ptr %2, i64 4
  %14 = load i32, ptr %13, align 4
  %15 = call ptr @proto_tree_add_item_ret_uint(ptr noundef %3, i32 noundef %12, ptr noundef %0, i32 noundef %5, i32 noundef %6, i32 noundef %14, ptr noundef nonnull %9)
  %16 = load i32, ptr %9, align 4
  call void (ptr, ptr, ...) @proto_item_append_text(ptr noundef %3, ptr noundef nonnull @.str.89, i32 noundef %16)
  br label %22

17:                                               ; preds = %7
  %18 = load i32, ptr @hf_net_dm_port_netdev_name, align 4
  %19 = tail call ptr @wmem_packet_scope()
  %20 = call ptr @proto_tree_add_item_ret_string(ptr noundef %3, i32 noundef %18, ptr noundef %0, i32 noundef %5, i32 noundef %6, i32 noundef 0, ptr noundef %19, ptr noundef nonnull %8)
  %21 = load ptr, ptr %8, align 8
  call void (ptr, ptr, ...) @proto_item_append_text(ptr noundef %3, ptr noundef nonnull @.str.88, ptr noundef %21)
  br label %22

22:                                               ; preds = %7, %17, %11
  %.0 = phi i32 [ 1, %17 ], [ 1, %11 ], [ 0, %7 ]
  call void @llvm.lifetime.end.p0(i64 4, ptr nonnull %9) #4
  call void @llvm.lifetime.end.p0(i64 8, ptr nonnull %8) #4
  ret i32 %.0
}